target datalayout = "e-m:e-p270:32:32-p271:32:32-p272:64:64-i64:64-i128:128-f80:128-n8:16:32:64-S128"
target triple = "x86_64-unknown-linux-gnu"

%"struct.(anonymous namespace)::TestParams" = type { i32, i32, i32 }
%"class.testing::internal::TestFactoryBase" = type { ptr }
%"class.testing::internal::ParameterizedTestFactory.96" = type <{ %"class.testing::internal::TestFactoryBase", %"struct.(anonymous namespace)::TestParams", [4 x i8] }>

; Function Attrs: mustprogress nounwind uwtable
define linkonce_odr dso_local void @_ZN7testing8internal15TestFactoryBaseC2Ev(ptr noundef nonnull align 8 dereferenceable(8) %this) unnamed_addr #5 comdat align 2 {
entry:
  %this.addr = alloca ptr, align 8
  store ptr %this, ptr %this.addr, align 8
  %this1 = load ptr, ptr %this.addr, align 8
  store ptr getelementptr inbounds ({ [5 x ptr] }, ptr @_ZTVN7testing8internal15TestFactoryBaseE, i32 0, i32 0, i32 2), ptr %this1, align 8
  ret void
}

; Function Attrs: mustprogress nounwind uwtable
define internal void @_ZN7testing8internal24ParameterizedTestFactoryIN12_GLOBAL__N_155EngineParamTest_SmallCorrectnessCheckDestAlignment_TestEEC2ENS2_10TestParamsE(ptr noundef nonnull align 8 dereferenceable(20) %this, i64 %parameter.coerce0, i32 %parameter.coerce1) unnamed_addr #5 align 2 {
entry:
  %parameter = alloca %"struct.(anonymous namespace)::TestParams", align 4
  %coerce = alloca { i64, i32 }, align 4
  %this.addr = alloca ptr, align 8
  %0 = getelementptr inbounds { i64, i32 }, ptr %coerce, i32 0, i32 0
  store i64 %parameter.coerce0, ptr %0, align 4
  %1 = getelementptr inbounds { i64, i32 }, ptr %coerce, i32 0, i32 1
  store i32 %parameter.coerce1, ptr %1, align 4
  call void @llvm.memcpy.p0.p0.i64(ptr align 4 %parameter, ptr align 4 %coerce, i64 12, i1 false)
  store ptr %this, ptr %this.addr, align 8
  %this1 = load ptr, ptr %this.addr, align 8
  call void @_ZN7testing8internal15TestFactoryBaseC2Ev(ptr noundef nonnull align 8 dereferenceable(8) %this1)
  store ptr getelementptr inbounds ({ [5 x ptr] }, ptr @_ZTVN7testing8internal24ParameterizedTestFactoryIN12_GLOBAL__N_155EngineParamTest_SmallCorrectnessCheckDestAlignment_TestEEE, i32 0, i32 0, i32 2), ptr %this1, align 8
  %parameter_ = getelementptr inbounds %"class.testing::internal::ParameterizedTestFactory.96", ptr %this1, i32 0, i32 1
  call void @llvm.memcpy.p0.p0.i64(ptr align 8 %parameter_, ptr align 4 %parameter, i64 12, i1 false)
  ret void
}

; Function Attrs: mustprogress uwtable
define internal noundef ptr @_ZN7testing8internal15TestMetaFactoryIN12_GLOBAL__N_155EngineParamTest_SmallCorrectnessCheckDestAlignment_TestEE17CreateTestFactoryENS2_10TestParamsE(ptr noundef nonnull align 8 dereferenceable(8) %this, i64 %parameter.coerce0, i32 %parameter.coerce1) unnamed_addr #4 align 2 personality ptr @__gxx_personality_v0 {
entry:
  %parameter = alloca %"struct.(anonymous namespace)::TestParams", align 4
  %coerce = alloca { i64, i32 }, align 4
  %this.addr = alloca ptr, align 8
  %agg.tmp = alloca %"struct.(anonymous namespace)::TestParams", align 4
  %agg.tmp.coerce = alloca { i64, i32 }, align 4
  %exn.slot = alloca ptr, align 8
  %ehselector.slot = alloca i32, align 4
  %0 = getelementptr inbounds { i64, i32 }, ptr %coerce, i32 0, i32 0
  store i64 %parameter.coerce0, ptr %0, align 4
  %1 = getelementptr inbounds { i64, i32 }, ptr %coerce, i32 0, i32 1
  store i32 %parameter.coerce1, ptr %1, align 4
  call void @llvm.memcpy.p0.p0.i64(ptr align 4 %parameter, ptr align 4 %coerce, i64 12, i1 false)
  store ptr %this, ptr %this.addr, align 8
  %call = call noalias noundef nonnull ptr @_Znwm(i64 noundef 24) #18
  call void @llvm.memcpy.p0.p0.i64(ptr align 4 %agg.tmp, ptr align 4 %parameter, i64 12, i1 false)
  call void @llvm.memcpy.p0.p0.i64(ptr align 4 %agg.tmp.coerce, ptr align 4 %agg.tmp, i64 12, i1 false)
  %2 = getelementptr inbounds { i64, i32 }, ptr %agg.tmp.coerce, i32 0, i32 0
  %3 = load i64, ptr %2, align 4
  %4 = getelementptr inbounds { i64, i32 }, ptr %agg.tmp.coerce, i32 0, i32 1
  %5 = load i32, ptr %4, align 4
  invoke void @_ZN7testing8internal24ParameterizedTestFactoryIN12_GLOBAL__N_155EngineParamTest_SmallCorrectnessCheckDestAlignment_TestEEC2ENS2_10TestParamsE(ptr noundef nonnull align 8 dereferenceable(20) %call, i64 %3, i32 %5)
          to label %invoke.cont unwind label %lpad

invoke.cont:                                      ; preds = %entry
  ret ptr %call

lpad:                                             ; preds = %entry
  %6 = landingpad { ptr, i32 }
          cleanup
  %7 = extractvalue { ptr, i32 } %6, 0
  store ptr %7, ptr %exn.slot, align 8
  %8 = extractvalue { ptr, i32 } %6, 1
  store i32 %8, ptr %ehselector.slot, align 4
  call void @_ZdlPv(ptr noundef %call) #20
  br label %eh.resume

eh.resume:                                        ; preds = %lpad
  %exn = load ptr, ptr %exn.slot, align 8
  %sel = load i32, ptr %ehselector.slot, align 4
  %lpad.val = insertvalue { ptr, i32 } poison, ptr %exn, 0
  %lpad.val2 = insertvalue { ptr, i32 } %lpad.val, i32 %sel, 1
  resume { ptr, i32 } %lpad.val2
}